target datalayout = "e-m:e-p270:32:32-p271:32:32-p272:64:64-i64:64-i128:128-f80:128-n8:16:32:64-S128"
target triple = "x86_64-pc-linux-gnu"

%struct._OGLSDOps = type { %struct._SurfaceDataOps, ptr, ptr, i32, i32, i8, i8, i32, i32, i32, i32, i32, i32, i32, i32, i32, i32, i32 }
%struct._SurfaceDataOps = type { ptr, ptr, ptr, ptr, ptr, ptr, ptr }
%struct.OGLContext = type { ptr, i32, i32, float, i32, i32, i8, i8, i8, i8, i32, i8, ptr, i32, i32, i8 }

@j2d_glRasterPos2i = external global ptr, align 8
@j2d_glBitmap = external global ptr, align 8
@j2d_glCopyPixels = external global ptr, align 8
@j2d_glPixelZoom = external global ptr, align 8

; Function Attrs: nounwind uwtable
define internal void @OGLBlitSurfaceToSurface(ptr noundef %0, ptr noundef %1, ptr noundef %2, i32 noundef %3, i32 noundef %4, i32 noundef %5, i32 noundef %6, double noundef %7, double noundef %8, double noundef %9, double noundef %10) #0 {
  %12 = alloca ptr, align 8
  %13 = alloca ptr, align 8
  %14 = alloca ptr, align 8
  %15 = alloca i32, align 4
  %16 = alloca i32, align 4
  %17 = alloca i32, align 4
  %18 = alloca i32, align 4
  %19 = alloca double, align 8
  %20 = alloca double, align 8
  %21 = alloca double, align 8
  %22 = alloca double, align 8
  %23 = alloca float, align 4
  %24 = alloca float, align 4
  %25 = alloca i32, align 4
  %26 = alloca i32, align 4
  store ptr %0, ptr %12, align 8
  store ptr %1, ptr %13, align 8
  store ptr %2, ptr %14, align 8
  store i32 %3, ptr %15, align 4
  store i32 %4, ptr %16, align 4
  store i32 %5, ptr %17, align 4
  store i32 %6, ptr %18, align 4
  store double %7, ptr %19, align 8
  store double %8, ptr %20, align 8
  store double %9, ptr %21, align 8
  store double %10, ptr %22, align 8
  %27 = load i32, ptr %17, align 4
  %28 = load i32, ptr %15, align 4
  %29 = sub nsw i32 %27, %28
  store i32 %29, ptr %25, align 4
  %30 = load i32, ptr %18, align 4
  %31 = load i32, ptr %16, align 4
  %32 = sub nsw i32 %30, %31
  store i32 %32, ptr %26, align 4
  %33 = load double, ptr %21, align 8
  %34 = load double, ptr %19, align 8
  %35 = fsub double %33, %34
  %36 = fptrunc double %35 to float
  %37 = load i32, ptr %25, align 4
  %38 = sitofp i32 %37 to float
  %39 = fdiv float %36, %38
  store float %39, ptr %23, align 4
  %40 = load double, ptr %22, align 8
  %41 = load double, ptr %20, align 8
  %42 = fsub double %40, %41
  %43 = fptrunc double %42 to float
  %44 = load i32, ptr %26, align 4
  %45 = sitofp i32 %44 to float
  %46 = fdiv float %43, %45
  store float %46, ptr %24, align 4
  %47 = load ptr, ptr %13, align 8
  %48 = getelementptr inbounds %struct._OGLSDOps, ptr %47, i32 0, i32 7
  %49 = load i32, ptr %48, align 4
  %50 = load i32, ptr %15, align 4
  %51 = add nsw i32 %49, %50
  store i32 %51, ptr %15, align 4
  %52 = load ptr, ptr %13, align 8
  %53 = getelementptr inbounds %struct._OGLSDOps, ptr %52, i32 0, i32 8
  %54 = load i32, ptr %53, align 8
  %55 = load ptr, ptr %13, align 8
  %56 = getelementptr inbounds %struct._OGLSDOps, ptr %55, i32 0, i32 10
  %57 = load i32, ptr %56, align 8
  %58 = add nsw i32 %54, %57
  %59 = load i32, ptr %18, align 4
  %60 = sub nsw i32 %58, %59
  store i32 %60, ptr %16, align 4
  %61 = load double, ptr %22, align 8
  store double %61, ptr %20, align 8
  %62 = load ptr, ptr %12, align 8
  %63 = getelementptr inbounds %struct.OGLContext, ptr %62, i32 0, i32 3
  %64 = load float, ptr %63, align 8
  %65 = fcmp une float %64, 1.000000e+00
  br i1 %65, label %66, label %70

66:                                               ; preds = %11
  %67 = load ptr, ptr %12, align 8
  %68 = getelementptr inbounds %struct.OGLContext, ptr %67, i32 0, i32 3
  %69 = load float, ptr %68, align 8
  call void @OGLContext_SetExtraAlpha(float noundef %69)
  br label %70

70:                                               ; preds = %66, %11
  %71 = load ptr, ptr @j2d_glRasterPos2i, align 8
  call void %71(i32 noundef 0, i32 noundef 0)
  %72 = load ptr, ptr @j2d_glBitmap, align 8
  %73 = load double, ptr %19, align 8
  %74 = fptrunc double %73 to float
  %75 = load double, ptr %20, align 8
  %76 = fneg double %75
  %77 = fptrunc double %76 to float
  call void %72(i32 noundef 0, i32 noundef 0, float noundef 0.000000e+00, float noundef 0.000000e+00, float noundef %74, float noundef %77, ptr noundef null)
  %78 = load float, ptr %23, align 4
  %79 = fcmp oeq float %78, 1.000000e+00
  br i1 %79, label %80, label %89

80:                                               ; preds = %70
  %81 = load float, ptr %24, align 4
  %82 = fcmp oeq float %81, 1.000000e+00
  br i1 %82, label %83, label %89

83:                                               ; preds = %80
  %84 = load ptr, ptr @j2d_glCopyPixels, align 8
  %85 = load i32, ptr %15, align 4
  %86 = load i32, ptr %16, align 4
  %87 = load i32, ptr %25, align 4
  %88 = load i32, ptr %26, align 4
  call void %84(i32 noundef %85, i32 noundef %86, i32 noundef %87, i32 noundef %88, i32 noundef 6144)
  br label %99

89:                                               ; preds = %80, %70
  %90 = load ptr, ptr @j2d_glPixelZoom, align 8
  %91 = load float, ptr %23, align 4
  %92 = load float, ptr %24, align 4
  call void %90(float noundef %91, float noundef %92)
  %93 = load ptr, ptr @j2d_glCopyPixels, align 8
  %94 = load i32, ptr %15, align 4
  %95 = load i32, ptr %16, align 4
  %96 = load i32, ptr %25, align 4
  %97 = load i32, ptr %26, align 4
  call void %93(i32 noundef %94, i32 noundef %95, i32 noundef %96, i32 noundef %97, i32 noundef 6144)
  %98 = load ptr, ptr @j2d_glPixelZoom, align 8
  call void %98(float noundef 1.000000e+00, float noundef 1.000000e+00)
  br label %99

99:                                               ; preds = %89, %83
  %100 = load ptr, ptr %12, align 8
  %101 = getelementptr inbounds %struct.OGLContext, ptr %100, i32 0, i32 3
  %102 = load float, ptr %101, align 8
  %103 = fcmp une float %102, 1.000000e+00
  br i1 %103, label %104, label %105

104:                                              ; preds = %99
  call void @OGLContext_SetExtraAlpha(float noundef 1.000000e+00)
  br label %105

105:                                              ; preds = %104, %99
  ret void
}