; Function Attrs: nounwind uwtable
define internal fastcc void @OGLBlitSurfaceToSurface(ptr nocapture noundef readonly %0, ptr nocapture noundef readonly %1, i32 noundef %2, i32 noundef %3, i32 noundef %4, i32 noundef %5, double noundef %6, double noundef %7, double noundef %8, double noundef %9) unnamed_addr #0 {
  %11 = sub nsw i32 %4, %2
  %12 = sub nsw i32 %5, %3
  %13 = fsub double %8, %6
  %14 = fptrunc double %13 to float
  %15 = sitofp i32 %11 to float
  %16 = fdiv float %14, %15
  %17 = fsub double %9, %7
  %18 = fptrunc double %17 to float
  %19 = sitofp i32 %12 to float
  %20 = fdiv float %18, %19
  %21 = getelementptr inbounds i8, ptr %1, i64 84
  %22 = load i32, ptr %21, align 4
  %23 = add nsw i32 %22, %2
  %24 = getelementptr inbounds i8, ptr %1, i64 88
  %25 = load i32, ptr %24, align 8
  %26 = getelementptr inbounds i8, ptr %1, i64 96
  %27 = load i32, ptr %26, align 8
  %28 = sub i32 %25, %5
  %29 = add i32 %28, %27
  %30 = getelementptr inbounds i8, ptr %0, i64 16
  %31 = load float, ptr %30, align 8
  %32 = fcmp une float %31, 1.000000e+00
  br i1 %32, label %33, label %34

33:                                               ; preds = %10
  tail call void @OGLContext_SetExtraAlpha(float noundef %31) #6
  br label %34

34:                                               ; preds = %33, %10
  %35 = load ptr, ptr @j2d_glRasterPos2i, align 8
  tail call void %35(i32 noundef 0, i32 noundef 0) #6
  %36 = load ptr, ptr @j2d_glBitmap, align 8
  %37 = fptrunc double %6 to float
  %38 = fptrunc double %9 to float
  %39 = fneg float %38
  tail call void %36(i32 noundef 0, i32 noundef 0, float noundef 0.000000e+00, float noundef 0.000000e+00, float noundef %37, float noundef %39, ptr noundef null) #6
  %40 = fcmp oeq float %16, 1.000000e+00
  %41 = fcmp oeq float %20, 1.000000e+00
  %or.cond = select i1 %40, i1 %41, i1 false
  br i1 %or.cond, label %42, label %44

42:                                               ; preds = %34
  %43 = load ptr, ptr @j2d_glCopyPixels, align 8
  tail call void %43(i32 noundef %23, i32 noundef %29, i32 noundef %11, i32 noundef %12, i32 noundef 6144) #6
  br label %48

44:                                               ; preds = %34
  %45 = load ptr, ptr @j2d_glPixelZoom, align 8
  tail call void %45(float noundef %16, float noundef %20) #6
  %46 = load ptr, ptr @j2d_glCopyPixels, align 8
  tail call void %46(i32 noundef %23, i32 noundef %29, i32 noundef %11, i32 noundef %12, i32 noundef 6144) #6
  %47 = load ptr, ptr @j2d_glPixelZoom, align 8
  tail call void %47(float noundef 1.000000e+00, float noundef 1.000000e+00) #6
  br label %48

48:                                               ; preds = %44, %42
  %49 = load float, ptr %30, align 8
  %50 = fcmp une float %49, 1.000000e+00
  br i1 %50, label %51, label %52

51:                                               ; preds = %48
  tail call void @OGLContext_SetExtraAlpha(float noundef 1.000000e+00) #6
  br label %52

52:                                               ; preds = %51, %48
  ret void
}